_ZN3agl3utl11MultiFilterC2Ev = __main_start + 0x0063F23C;
_ZN3agl3g3d7ResFile5SetupEPN2nn3g3d7ResFileE = __main_start + 0x0076370C;
_ZN3agl3g3d7ResFile17getResTextureFileEPN2nn3g3d7ResFileE = __main_start + 0x00763C9C;
_ZN3agl3g3d7ResFile17getResTextureFileEPKN2nn3g3d7ResFileE = __main_start + 0x00765A24;
_ZN3agl3utl19DynamicTextureCache4freeEPNS_11TextureDataE = __main_start + 0x00830100;
_ZN3agl3g3d25TextureDataInitializerG3D10initializeEPNS_11TextureDataERN2nn3gfx10ResTextureE = __main_start + 0x008CD944;
_ZN3agl7InitArgC2Ev = __main_start + 0x008D7A68;
_ZN3agl6detail9FileIOMgr10initializeERKNS1_9CreateArgEPN4sead4HeapE = __main_start + 0x008DDB6C;
_ZN3agl3lyr8Renderer4calcEb = __main_start + 0x009447FC;
_ZN3agl3lyr5Layer5calc_EPKN4sead10ControllerEib = __main_start + 0x009451D0;
_ZN3agl3utl23DynamicTextureAllocator19allocWithoutContextEPNS_11DrawContextERKN4sead14SafeStringBaseIcEENS_13TextureFormatEjjjPNS_14GPUMemVoidAddrENS1_12AllocateTypeEbb = __main_start + 0x00A71050;
_ZN3agl3utl12IParameterIOC2ERKN4sead14SafeStringBaseIcEEj = __main_start + 0x00A9CF7C;
_ZN3agl3lyr8LayerJob10initializeENS1_4TypeEPKNS0_5LayerEPN4sead4HeapE = __main_start + 0x00ADC45C;
_ZN3agl3lyr5LayerC2Ev = __main_start + 0x00ADD604;
_ZN3agl3lyr5Layer16updateDebugInfo_Ej = __main_start + 0x00ADED60;
_ZN3agl13ShaderProgram22setSamplerLocationNameEiRKN4sead14SafeStringBaseIcEE = __main_start + 0x00AEADB8;
_ZN3agl13ShaderProgram14setUniformNameEiRKN4sead14SafeStringBaseIcEE = __main_start + 0x00AEAE28;
_ZN3agl13ShaderProgram19setUniformBlockNameEiRKN4sead14SafeStringBaseIcEE = __main_start + 0x00AEAE98;
_ZN3agl13ShaderProgram21createSamplerLocationEiPN4sead4HeapE = __main_start + 0x00AEAF08;
_ZN3agl13ShaderProgram18createUniformBlockEiPN4sead4HeapE = __main_start + 0x00AEB120;
_ZN3agl20ShaderProgramArchive16createWithOptionENS_22ResBinaryShaderArchiveENS_16ResShaderArchiveEjPN4sead4HeapE = __main_start + 0x00AEBB00;
_ZNK3agl11DisplayList10callDirectEPNS_11DrawContextE = __main_start + 0x00BE8C38;
_ZN3agl11TextureDataC2Ev = __main_start + 0x00C00EB8;
_ZNK3agl17RenderTargetColor18invalidateGPUCacheEPNS_11DrawContextE = __main_start + 0x00C04690;
_ZNK3agl13ShaderProgram8activateEPNS_11DrawContextEb = __main_start + 0x00C53BD4;
_ZN3agl3utl13IParameterObjC2Ev = __main_start + 0x00E6FB00;
_ZNK3agl3pfx15ColorCorrection7drawMapEPNS_11DrawContextE = __main_start + 0x00EA9934;
_ZN3agl26ResBinaryShaderArchiveData12getExtensionEv = __main_start + 0x00EF7C98;
_ZN3agl3utl19ResParameterArchiveC2EPKv = __main_start + 0x00F212F4;
_ZN3agl6detail8RootNode11setNodeMetaEPN4sead6hostio4NodeERKNS2_14SafeStringBaseIcEE = __main_start + 0x00F3BB10;
_ZNK3agl20ShaderProgramArchive24searchShaderProgramIndexERKN4sead14SafeStringBaseIcEE = __main_start + 0x00FC5FD4;
_ZN3agl20ResShaderArchiveData12getExtensionEv = __main_start + 0x00FC6058;
_ZN3agl14TextureSampler16applyTextureDataERKNS_11TextureDataE = __main_start + 0x0101D010;
_ZN3agl3pfx14BloomParameterC2Ev = __main_start + 0x010BA378;
_ZN3agl3utl13ParameterBaseC2Ev = __main_start + 0x010C6850;
_ZN3agl3utl9ParameterIN4sead15FixedSafeStringILi64EEEEC2ERKS4_RKNS2_14SafeStringBaseIcEESB_PNS0_13IParameterObjE = __main_start + 0x010C690C;
_ZN3agl3utl14IParameterList6addObjEPNS0_13IParameterObjERKN4sead14SafeStringBaseIcEE = __main_start + 0x010C6EFC;
_ZNK3agl6driver6NVNMgr12waitDrawDoneEPNS_11DrawContextE = __main_start + 0x0114B210;
_ZN3agl3utl12IParameterIO4loadERKN4sead14SafeStringBaseIcEEb = __main_start + 0x0122E128;
_ZN3agl3utl14IParameterList7addListEPS1_RKN4sead14SafeStringBaseIcEE = __main_start + 0x012C6140;
_ZN3agl3g3d7ResFile10GetTextureEPN2nn3g3d7ResFileEi = __main_start + 0x021E10CC;
_ZN3agl22ResBinaryShaderArchive7cleanUpEv = __main_start + 0x021EA020;
_ZN3agl6detail18CreateAbsolutePathEPN4sead22BufferedSafeStringBaseIcEERKNS1_14SafeStringBaseIcEES8_ = __main_start + 0x021F0130;
_ZN3agl6detail8LoadFileEPPvPjPN4sead4HeapEiRKNS4_14SafeStringBaseIcEEi = __main_start + 0x021F07C0;
_ZN3agl3env6EnvObj13copyFromImpl_ERKS1_ = __main_start + 0x021F55C8;
_ZN3agl3env6EnvObjD2Ev = __main_start + 0x021F9060;
_ZN3agl6detail9FileIOMgr9DialogArgC2Ev = __main_start + 0x022046B8;
_ZN3agl6detail9FileIOMgr4loadERKNS1_9DialogArgE = __main_start + 0x02204914;
_ZNK3agl3utl16ResParameterList4dumpEiPKN4sead7TreeMapIjPKcEE = __main_start + 0x02204ACC;
_ZN3agl4lght12LightPrePass12ProjLightMgr13loadTextureOREPNS1_9ProjLightE = __main_start + 0x0220F030;
_ZNK3agl6detail9FileIOMgr10showDialogEPN4sead6hostio8FileInfoERKNS2_14SafeStringBaseIcEES9_S9_S9_ = __main_start + 0x0220F368;
_ZNK3agl3utl10ColorDrift7doDraw_EPNS_11DrawContextEPNS0_22MultiFilterDrawContextE = __main_start + 0x0221EEB0;
_ZN3agl3env6EnvObj8TypeToIDIN4gsys8ModelRigEE14createInstanceEPN4sead4HeapE = __main_start + 0x0222B0D4;
_ZNK3agl3lyr5Layer19isRenderStepGPUCalcEi = __main_start + 0x027D1F94;
_ZNK3agl3lyr5Layer24isRenderStepNoDependencyEi = __main_start + 0x027D1F9C;
_ZNK3agl3lyr5Layer19isForceDisableClearEv = __main_start + 0x027D1FB0;
_ZNK3agl3utl13IParameterObj9preWrite_Ev = __main_start + 0x027D345C;
_ZNK3agl3utl13IParameterObj10postWrite_Ev = __main_start + 0x027D3464;
_ZN3agl3utl13IParameterObj8preRead_Ev = __main_start + 0x027D3468;
_ZN3agl3env6EnvObj9postRead_Ev = __main_start + 0x027D3470;
_ZN3agl3utl13IParameterObj8preCopy_Ev = __main_start + 0x027D347C;
_ZN3agl3utl13IParameterObj9postCopy_Ev = __main_start + 0x027D3484;
_ZNK3agl3utl13IParameterObj8isApply_ENS0_15ResParameterObjE = __main_start + 0x027D3488;
_ZN3agl3env6EnvObj16callbackLoadDataEv = __main_start + 0x027D34A8;
_ZNK3agl3env6EnvObj13getEnvObjNameEv = __main_start + 0x027D34AC;
_ZNK3agl3env6EnvObj12getGroupNameEv = __main_start + 0x027D34C0;
_ZNK3agl3env6EnvObj10getObjNameEv = __main_start + 0x027D34D4;
_ZNK3agl3env6EnvObj15isHostIOEnabledEv = __main_start + 0x027D34E0;
_ZNK3agl3env6EnvObj10getObjTypeEv = __main_start + 0x027D34EC;
_ZN3agl3utl13IParameterObj9postRead_Ev = __main_start + 0x027D392C;
_ZN3agl3env6EnvObj11registClassERKN4sead14SafeStringBaseIcEES6_PFPS1_PNS2_4HeapEENS1_8MetaInfoEj = __main_start + 0x02A39BB4;
_ZN3agl3env6EnvObj8sTypeNumE = __main_start + 0x04719C28;
_ZN3agl3env6EnvObj14sTypeInfoTableE = __main_start + 0x04719C30;
_ZN3agl3lyr5Layer15sCameraIdentityE = __main_start + 0x0471B270;
_ZN3agl6detail9FileIOMgr9sInstanceE = __main_start + 0x0471B460;
