_ZN4gsys13ModelResource7create_ERKNS0_9CreateArgEPN4sead4HeapE = __main_start + 0x0076295C;
_ZN4gsys13ModelResourceC1ERKNS0_9CreateArgEPN4sead4HeapES6_ = __main_start + 0x0076305C;
_ZN4gsys18ModelShaderArchive9setBinaryEPv = __main_start + 0x00770560;
_ZN4gsys10SystemTask8preCalc_Ev = __main_start + 0x00836314;
_ZN4gsys10SystemTask7prepareEv = __main_start + 0x008D6EEC;
_ZNK4gsys10ModelScene7drawOpaEPN3agl11DrawContextEi = __main_start + 0x00A5A344;
_ZN4gsys7GBuffer23entryToDebugTexturePageEPN3agl11DrawContextEiPKNS1_3utl16DebugTexturePageE = __main_start + 0x00A5CB44;
_ZNK4gsys5Layer11preDrawImplERKN3agl3lyr10RenderInfoE = __main_start + 0x00A88DB4;
_ZN4gsys5LayerC2Ev = __main_start + 0x00ADCFB4;
_ZN4gsys10SystemTask14createResourceEPN4sead10ArchiveResES3_S3_PNS1_4HeapE = __main_start + 0x00ADE0AC;
_ZN4gsys18ModelShaderArchive5setupEPN4sead4HeapES3_ = __main_start + 0x00ADF0B4;
_ZN4gsys10SystemTask9postCalc_Ev = __main_start + 0x00B1DFC4;
_ZN4gsys10SystemTask7drawTV_Ev = __main_start + 0x00BE79F4;
_ZNK4gsys10ModelScene14drawBackgroundEPN3agl11DrawContextEi = __main_start + 0x00C84708;
_ZN4gsys13ModelSceneEnv15PartsSetUserBin12setExtensionERKN4sead14SafeStringBaseIcEE = __main_start + 0x00CABB98;
_ZN4gsys10ModelScene8calcViewEPN3agl11DrawContextEiRKNS1_12RenderBufferEb = __main_start + 0x00CDAA90;
_ZNK4gsys16ModelSceneBuffer8calcViewEPN3agl11DrawContextEPNS_17ModelSceneContextERKNS1_12RenderBufferEbbbPKNS_17GPUStressAnalyzerE = __main_start + 0x00CDAC14;
_ZN4gsys7Layer3DC2Ev = __main_start + 0x00E56D28;
_ZN4gsys13ModelSceneEnv15setFilenameImplEPNS0_7DataSetERKN4sead14SafeStringBaseIcEE = __main_start + 0x00E57D10;
_ZN4gsys10ModelScene6createERKN4sead14SafeStringBaseIcEERKNS0_9CreateArgEPNS1_4HeapE = __main_start + 0x00E57E20;
_ZN4gsys20ModelSceneConfigList5setupERKN4sead14SafeStringBaseIcEE = __main_start + 0x00E57F80;
_ZN4gsys20ModelSceneConfigList6reloadERKN4sead14SafeStringBaseIcEE = __main_start + 0x00E58118;
_ZN4gsys10ModelSceneC1ERNS_16ModelSceneConfigE = __main_start + 0x00E58240;
_ZN4gsys10ModelScene11initialize_ERKNS0_9CreateArgEPN4sead4HeapES6_ = __main_start + 0x00E5C538;
_ZN4gsys13ModelSceneEnv14loadBinaryImplEPNS0_7DataSetEPKvmPN4sead4HeapE = __main_start + 0x00E80BF0;
_ZN4gsys12ShaderHolder10initializeEPN4sead10ArchiveResEPNS1_4HeapES5_ = __main_start + 0x00FC5704;
_ZN4gsys13ModelResource9CreateArgC2EPv = __main_start + 0x0100DCF0;
_ZN4gsys13ModelResource7destroyEPS0_ = __main_start + 0x0106B7EC;
_ZN4gsys13ModelSceneEnv9clearImplEPNS0_7DataSetEb = __main_start + 0x01083DE8;
_ZN4gsys13ModelResourceD2Ev = __main_start + 0x010871A8;
_ZNK4gsys10SystemTask27checkDerivedRuntimeTypeInfoEPKN4sead15RuntimeTypeInfo9InterfaceE = __main_start + 0x0109487C;
_ZN4gsys18ApplicationPackage7Package10initializeEPN4sead10ArchiveResES4_PNS2_4HeapES6_ = __main_start + 0x010C53CC;
_ZN4gsys17ModelShaderHolderC2Ev = __main_start + 0x010C54A0;
_ZN4gsys22ApplicationPackageInfoC2Ev = __main_start + 0x010C54B4;
_ZN4gsys14ParticleConfig10initializeEPN4sead4HeapES3_ = __main_start + 0x010C5A7C;
_ZN4gsys17ModelShaderHolder10initializeEPN4sead4HeapES3_ = __main_start + 0x010C5A80;
_ZN4gsys14ParticleConfig12applyResouceEPKv = __main_start + 0x010C5A94;
_ZN4gsys20ModelSceneConfigList12applyResouceEPKv = __main_start + 0x010C5ACC;
_ZN4gsys22ApplicationPackageInfo22getBinaryConfFileName_EPN4sead15FixedSafeStringILi64EEE = __main_start + 0x010C5B10;
_ZN4gsys22ApplicationPackageInfo26getBinaryPtclConfFileName_EPN4sead15FixedSafeStringILi64EEE = __main_start + 0x010C5B8C;
_ZN4gsys22ApplicationPackageInfo22initializeFromArchive_EPN4sead10ArchiveResEPNS1_4HeapE = __main_start + 0x010C5C08;
_ZN4gsys22ApplicationPackageInfo22getBinaryInfoFileName_EPN4sead15FixedSafeStringILi64EEE = __main_start + 0x010C5F84;
_ZN4gsys22ApplicationPackageInfo21convToBinaryFileName_EPN4sead15FixedSafeStringILi64EEERKNS1_14SafeStringBaseIcEE = __main_start + 0x010C6000;
_ZN4gsys22ApplicationPackageInfo22getBinaryListFileName_EPN4sead15FixedSafeStringILi64EEE = __main_start + 0x010C6168;
_ZN4gsys14ParticleConfigC2Ev = __main_start + 0x010C6350;
_ZN4gsys20ModelSceneConfigListC2Ev = __main_start + 0x010C6A70;
_ZNK4gsys15MaskedSpotLight27checkDerivedRuntimeTypeInfoEPKN4sead15RuntimeTypeInfo9InterfaceE = __main_start + 0x01106AA8;
_ZN4gsys10SystemTaskC2ERKNS0_9CreateArgERKN4sead16TaskConstructArgE = __main_start + 0x0112CA4C;
_ZN4gsys16ModelSceneConfigC2Ev = __main_start + 0x011556A8;
_ZN4gsys15MaskedProjLightC2Ev = __main_start + 0x011B4208;
_ZN4gsys10SystemTask14attachDrawImplEv = __main_start + 0x011E6EA0;
_ZN4gsys10SystemTask11postDrawTV_Ev = __main_start + 0x0123FB98;
_ZN4gsys11MaskedLightC2Ev = __main_start + 0x0125F2C0;
_ZNK4gsys5Layer12postDrawImplERKN3agl3lyr10RenderInfoE = __main_start + 0x012B6920;
_ZN4gsys9MemBufferD2Ev = __main_start + 0x01395330;
_ZN4gsys17ModelShaderHolder21addModelShaderArchiveEPvPN4sead4HeapES4_ = __main_start + 0x02219120;
_ZN4gsys17ModelShaderHolder28setInvalidModelShaderArchiveEPNS_18ModelShaderArchiveE = __main_start + 0x022191F8;
_ZN4gsys18ModelShaderArchiveC2Ev = __main_start + 0x0221990C;
_ZN4gsys5LayerD2Ev = __main_start + 0x0221B874;
_ZN4gsys5Layer14initializeImplEPN4sead4HeapE = __main_start + 0x0221BB78;
_ZNK4gsys5Layer21preDrawRenderStepImplERKN3agl3lyr10RenderInfoE = __main_start + 0x0221BC8C;
_ZNK4gsys5Layer22postDrawRenderStepImplERKN3agl3lyr10RenderInfoE = __main_start + 0x0221BDB8;
_ZNK4gsys5Layer27checkDerivedRuntimeTypeInfoEPKN4sead15RuntimeTypeInfo9InterfaceE = __main_start + 0x0221BF9C;
_ZNK4gsys5Layer18getRuntimeTypeInfoEv = __main_start + 0x0221C0A4;
_ZN4gsys11MaskedLightD2Ev = __main_start + 0x0221F61C;
_ZN4gsys15MaskedSpotLightD2Ev = __main_start + 0x0221F878;
_ZN4gsys15MaskedSpotLight22setToLightPrePassImpl_EPN3agl4lght12LightPrePassEiff = __main_start + 0x0221F8C8;
_ZNK4gsys15MaskedSpotLight13getLightInfo_EPN3agl4lght12LightPrePassEPNS3_9LightInfoE = __main_start + 0x0221FA40;
_ZNK4gsys15MaskedSpotLight17setShadowMapImpl_EiPN3agl4lght12LightPrePassEPKNS1_14TextureSamplerERKN4sead8Matrix44IfEE = __main_start + 0x0221FA50;
_ZN4gsys15MaskedSpotLight21genMessageMaskedLightEPN4sead6hostio7ContextE = __main_start + 0x0221FA68;
_ZN4gsys15MaskedProjLightD2Ev = __main_start + 0x0221FB78;
_ZN4gsys15MaskedProjLight22setToLightPrePassImpl_EPN3agl4lght12LightPrePassEiff = __main_start + 0x0221FC1C;
_ZNK4gsys15MaskedProjLight13getLightInfo_EPN3agl4lght12LightPrePassEPNS3_9LightInfoE = __main_start + 0x0221FE88;
_ZNK4gsys15MaskedProjLight17setShadowMapImpl_EiPN3agl4lght12LightPrePassEPKNS1_14TextureSamplerERKN4sead8Matrix44IfEE = __main_start + 0x0221FE98;
_ZN4gsys15MaskedProjLight21genMessageMaskedLightEPN4sead6hostio7ContextE = __main_start + 0x0221FEB0;
_ZN4gsys15MaskedProjLight30listenPropertyEventMaskedLightEPKN4sead6hostio13PropertyEventE = __main_start + 0x02220024;
_ZNK4gsys11MaskedLight27checkDerivedRuntimeTypeInfoEPKN4sead15RuntimeTypeInfo9InterfaceE = __main_start + 0x022201F4;
_ZNK4gsys11MaskedLight18getRuntimeTypeInfoEv = __main_start + 0x02220230;
_ZNK4gsys15MaskedSpotLight18getRuntimeTypeInfoEv = __main_start + 0x02220234;
_ZNK4gsys15MaskedProjLight27checkDerivedRuntimeTypeInfoEPKN4sead15RuntimeTypeInfo9InterfaceE = __main_start + 0x022202A4;
_ZNK4gsys15MaskedProjLight18getRuntimeTypeInfoEv = __main_start + 0x02220340;
_ZN4gsys10ModelScene11calcViewGPUEi = __main_start + 0x0222D52C;
_ZN4gsys19RenderBufferContext16updateHalfBufferEPN3agl11DrawContextEib = __main_start + 0x0222E744;
_ZNK4gsys7Layer3D5draw_ERKN3agl3lyr10RenderInfoE = __main_start + 0x02230280;
_ZN4gsys7Layer3DD2Ev = __main_start + 0x02230350;
_ZNK4gsys7Layer3D18getRuntimeTypeInfoEv = __main_start + 0x02230408;
_ZN4gsys13ModelSceneEnv12freeResourceEPNS0_7DataSetEb = __main_start + 0x02232574;
_ZN4gsys13ModelSceneEnv5load_EPNS0_7DataSetERKN4sead14SafeStringBaseIcEES7_b = __main_start + 0x022327D8;
_ZN4gsys10SystemTaskD2Ev = __main_start + 0x0225C35C;
_ZN4gsys10SystemTask4exitEv = __main_start + 0x0225C670;
_ZN4gsys10SystemTask14detachCalcImplEv = __main_start + 0x0225C8DC;
_ZN4gsys10SystemTask14detachDrawImplEv = __main_start + 0x0225C904;
_ZN4gsys10SystemTask9pauseCalcEb = __main_start + 0x0225C92C;
_ZN4gsys10SystemTask12pauseCalcRecEb = __main_start + 0x0225C960;
_ZN4gsys10SystemTask12pauseDrawRecEb = __main_start + 0x0225C99C;
_ZNK4gsys10SystemTask37getCorrespondingMethodTreeMgrTypeInfoEv = __main_start + 0x0225C9D8;
_ZNK4gsys10SystemTask18getRuntimeTypeInfoEv = __main_start + 0x0225C9DC;
_ZNK4gsys5Layer16isForceInvisibleEv = __main_start + 0x027D1FA4;
_ZN4gsys5Layer13calcJobWeightEv = __main_start + 0x027D1FB8;
_ZN4gsys5Layer12doInitializeEPN4sead4HeapE = __main_start + 0x027D1FBC;
_ZN4gsys5Layer6doCalcEv = __main_start + 0x027D1FC0;
_ZNK4gsys5Layer9doPreDrawERKN3agl3lyr10RenderInfoE = __main_start + 0x027D1FC4;
_ZNK4gsys5Layer10doPostDrawERKN3agl3lyr10RenderInfoE = __main_start + 0x027D1FC8;
_ZN4gsys5LayerD0Ev = __main_start + 0x02A44480;
_ZNK4gsys5Layer27preDrawRenderStepMethodImplERKN3agl3lyr10RenderInfoERKNS2_10DrawMethodE = __main_start + 0x02A44484;
_ZNK4gsys5Layer28postDrawRenderStepMethodImplERKN3agl3lyr10RenderInfoERKNS2_10DrawMethodE = __main_start + 0x02A44494;
_ZN4gsys11MaskedLightD0Ev = __main_start + 0x02A44D0C;
_ZN4gsys11MaskedLight10initializeEiPN4sead4HeapE = __main_start + 0x02A44DD8;
_ZN4gsys11MaskedLight6updateEv = __main_start + 0x02A44DE8;
_ZN4gsys11MaskedLight10updateViewERKN3agl3env6EnvObj8ViewDataEi = __main_start + 0x02A44E00;
_ZNK4gsys11MaskedLight9drawDebugEPN3agl11DrawContextERKN4sead8Matrix34IfEERKNS4_8Matrix44IfEEi = __main_start + 0x02A44E20;
_ZN4gsys15MaskedSpotLightD0Ev = __main_start + 0x02A44E34;
_ZNK4gsys15MaskedSpotLight14drawDebugImpl_EPN3agl11DrawContextERKN4sead8Matrix34IfEERKNS4_8Matrix44IfEEi = __main_start + 0x02A44F00;
_ZN4gsys15MaskedSpotLight30listenPropertyEventMaskedLightEPKN4sead6hostio13PropertyEventE = __main_start + 0x02A44F04;
_ZN4gsys15MaskedProjLightD0Ev = __main_start + 0x02A44F10;
_ZNK4gsys15MaskedProjLight14drawDebugImpl_EPN3agl11DrawContextERKN4sead8Matrix34IfEERKNS4_8Matrix44IfEEi = __main_start + 0x02A44FDC;
_ZNK4gsys11MaskedLight9getTypeIDEv = __main_start + 0x02A44FE0;
_ZN4gsys11MaskedLight15initializeImpl_EiPN4sead4HeapE = __main_start + 0x02A44FF0;
_ZN4gsys11MaskedLight22setToLightPrePassImpl_EPN3agl4lght12LightPrePassEiff = __main_start + 0x02A44FF4;
_ZN4gsys11MaskedLight11updateImpl_Ev = __main_start + 0x02A44FF8;
_ZN4gsys11MaskedLight15updateViewImpl_ERKN4sead8Matrix34IfEERKNS1_8Matrix44IfEEi = __main_start + 0x02A44FFC;
_ZNK4gsys11MaskedLight13getLightInfo_EPN3agl4lght12LightPrePassEPNS3_9LightInfoE = __main_start + 0x02A45000;
_ZNK4gsys11MaskedLight17setShadowMapImpl_EiPN3agl4lght12LightPrePassEPKNS1_14TextureSamplerERKN4sead8Matrix44IfEE = __main_start + 0x02A45004;
_ZNK4gsys11MaskedLight14drawDebugImpl_EPN3agl11DrawContextERKN4sead8Matrix34IfEERKNS4_8Matrix44IfEEi = __main_start + 0x02A45008;
_ZN4gsys11MaskedLight21genMessageMaskedLightEPN4sead6hostio7ContextE = __main_start + 0x02A4500C;
_ZN4gsys11MaskedLight30listenPropertyEventMaskedLightEPKN4sead6hostio13PropertyEventE = __main_start + 0x02A45010;
_ZNK4gsys15MaskedSpotLight9getTypeIDEv = __main_start + 0x02A45014;
_ZNK4gsys15MaskedProjLight9getTypeIDEv = __main_start + 0x02A45024;
_ZN4gsys16ModelSceneConfig17EnvObjSetTemplateD2Ev = __main_start + 0x02A4A424;
_ZN4gsys16ModelSceneConfig17EnvObjSetTemplateD0Ev = __main_start + 0x02A4A464;
_ZN4gsys7Layer3DD0Ev = __main_start + 0x02A4A6F4;
_ZNK4gsys7Layer3D17getRenderStepNameEi = __main_start + 0x02A4A758;
_ZN4gsys7Layer3D12doInitializeEPN4sead4HeapE = __main_start + 0x02A4A76C;
_ZN4gsys7Layer3D13calcJobWeightEv = __main_start + 0x02A4A810;
_ZNK4gsys7Layer3D24isRenderStepNoDependencyEi = __main_start + 0x02A4A86C;
_ZNK4gsys7Layer3D27checkDerivedRuntimeTypeInfoEPKN4sead15RuntimeTypeInfo9InterfaceE = __main_start + 0x02A4A8A4;
_ZNK4gsys7Layer3D16getRenderStepNumEv = __main_start + 0x02A4AA1C;
_ZNK4gsys7Layer3D19isRenderStepGPUCalcEi = __main_start + 0x02A4AA24;
_ZNK4gsys7Layer3D19isForceDisableClearEv = __main_start + 0x02A4AA30;
_ZN4gsys10SystemTask9CreateArgD2Ev = __main_start + 0x02A51F54;
_ZN4gsys10SystemTaskD0Ev = __main_start + 0x02A51F58;
_ZN4gsys10SystemTask14attachCalcImplEv = __main_start + 0x02A51FC4;
_ZN4gsys10SystemTask9pauseDrawEb = __main_start + 0x02A51FC8;
_ZN4gsys10SystemTask17getMethodTreeNodeEi = __main_start + 0x02A52068;
_ZN4gsys10SystemTask9CreateArgD0Ev = __main_start + 0x02A520A0;
_ZTVN4gsys5LayerE = __main_start + 0x045C1FF0;
_ZTVN4gsys11MaskedLightE = __main_start + 0x045C2630;
_ZTVN4gsys15MaskedSpotLightE = __main_start + 0x045C2780;
_ZTVN4gsys15MaskedProjLightE = __main_start + 0x045C28D0;
_ZTVN4gsys16ModelSceneConfigE = __main_start + 0x045C4698;
_ZTVN4gsys16ModelSceneConfig17EnvObjSetTemplateE = __main_start + 0x045C4B90;
_ZTVN4gsys20ModelSceneConfigListE = __main_start + 0x045C4BE8;
_ZTVN4gsys7Layer3DE = __main_start + 0x045C4D60;
_ZTVN4gsys10SystemTask9CreateArgE = __main_start + 0x045C9EE0;
_ZTVN4gsys10SystemTaskE = __main_start + 0x045C9F00;
_ZN4gsys15MaskedSpotLight9sTypeInfoE = __main_start + 0x0471B578;
_ZN4gsys16ModelResourceMgr9sInstanceE = __main_start + 0x0471B878;
_ZN4gsys8ModelRig9sTypeInfoE = __main_start + 0x0471B880;
_ZN4gsys12ProcessMeter9sInstanceE = __main_start + 0x0471BB68;
