_ZN2nn3gfx6detail8GlslcDll11GetInstanceEv = __main_start + 0x00030CB4;
_ZN2nn2os5MutexD2Ev = __main_start + 0x0003139C;
_ZN2nn4ui2d12ArcExtractor14PrepareArchiveEPKv = __main_start + 0x000672E8;
_ZN2nn3g3d11ResMaterial5ResetEj = __main_start + 0x000726B8;
_ZN2nn3g3d15ResMaterialAnim5ResetEv = __main_start + 0x00072FB4;
_ZN2nn3g3d12ResAnimCurve10ResetFloatEv = __main_start + 0x00073ED0;
_ZN2nn3g3d12ResAnimCurve8ResetIntEv = __main_start + 0x00073F54;
_ZN2nn3g3d8ResModel5ResetEj = __main_start + 0x00074400;
_ZN2nn3g3d12ResSceneAnim5ResetEv = __main_start + 0x000744F8;
_ZN2nn3g3d9ResVertex5ResetEj = __main_start + 0x0007484C;
_ZN2nn3g3d8ResShape5ResetEj = __main_start + 0x00074C38;
_ZN2nn3g3d12ResShapeAnim5ResetEv = __main_start + 0x00074E64;
_ZN2nn3g3d15ResSkeletalAnim5ResetEv = __main_start + 0x00075158;
_ZN2nn3g3d11ResSkeleton5ResetEj = __main_start + 0x00075234;
_ZN2nn3g3d7ResFile7ResCastEPv = __main_start + 0x007636D0;
_ZN2nn3gfx6detail14MemoryPoolImplINS0_12ApiVariationINS0_7ApiTypeILi4EEENS0_10ApiVersionILi8EEEEEE10InitializeEPNS1_10DeviceImplIS8_EERKNS0_14MemoryPoolInfoE = __main_start + 0x00763AFC;
_ZN2nn3gfx6detail14MemoryPoolImplINS0_12ApiVariationINS0_7ApiTypeILi4EEENS0_10ApiVersionILi8EEEEEEC2Ev = __main_start + 0x0076A290;
_ZN2nn3gfx14ResTextureFile7ResCastEPv = __main_start + 0x00CA3710;
_ZN2nn3gfx6detail14MemoryPoolImplINS0_12ApiVariationINS0_7ApiTypeILi4EEENS0_10ApiVersionILi8EEEEEED2Ev = __main_start + 0x00E14ED0;
_ZN2nn4ui2d12ArcExtractorC2EPKv = __main_start + 0x00E1C7BC;
_ZN2nn3g3d7ResFile5ResetEv = __main_start + 0x01087794;
_ZN2nn3g3d15ResSkeletalAnim10ResetCurveEv = __main_start + 0x01087D20;
_ZN2nn8settingseqERKNS0_12LanguageCodeES3_ = __main_start + 0x01099800;
_ZN2nn3gfx6detail10DeviceImplINS0_12ApiVariationINS0_7ApiTypeILi4EEENS0_10ApiVersionILi8EEEEEEC2Ev = __main_start + 0x012B11C4;
_ZN2nn3gfx6detail3Nvn16GetDeviceFeatureEPK9NVNdevice = __main_start + 0x012B11E0;
_ZN2nn14MemoryResourceD2Ev = __main_start + 0x02A39100;
_ZTVN2nn4font16TagProcessorBaseIcEE = __main_start + 0x041ADDC0;
_ZTVN2nn4font16TagProcessorBaseItEE = __main_start + 0x041ADE48;
_ZTVN2nn4font24ExtendedTagProcessorBaseIcEE = __main_start + 0x041ADEF0;
_ZTVN2nn4font24ExtendedTagProcessorBaseItEE = __main_start + 0x041ADF90;
_ZTVN2nn4font4FontE = __main_start + 0x041AE030;
_ZTVN2nn4font7ResFontE = __main_start + 0x041AE170;
_ZTVN2nn4font11ResFontBaseE = __main_start + 0x041AE2C0;
_ZTVN2nn4font21ResourceTextureObjectE = __main_start + 0x041AE410;
_ZTVN2nn4font13TextureObjectE = __main_start + 0x041AE468;
_ZTVN2nn4font12ScalableFontE = __main_start + 0x041AE498;
_ZTVN2nn4font12TextureCacheE = __main_start + 0x041AE5E0;
_ZTVN2nn4font22PlacementTextureObjectE = __main_start + 0x041AE610;
_ZTVN2nn4font10RectDrawerE = __main_start + 0x041B6438;
_ZTVN2nn4ui2d18AnimTransformBasicE = __main_start + 0x041B6488;
_ZTVN2nn4ui2d6LayoutE = __main_start + 0x041B6588;
_ZTVN2nn4ui2d23TransitionConditionNoneE = __main_start + 0x041B6678;
_ZTVN2nn4ui2d24TransitionConditionIsHitE = __main_start + 0x041B66C8;
_ZTVN2nn4ui2d26TransitionConditionIsNoHitE = __main_start + 0x041B6708;
_ZTVN2nn4ui2d28TransitionConditionIsDecidedE = __main_start + 0x041B6748;
_ZTVN2nn4ui2d45TransitionConditionIsStateTransitionCompletedE = __main_start + 0x041B6788;
_ZTVN2nn4ui2d34TransitionConditionVariableChangedE = __main_start + 0x041B67C8;
_ZTVN2nn4ui2d39TransitionConditionStateChangeRequestedE = __main_start + 0x041B6808;
_ZTVN2nn4ui2d34TransitionConditionIsButtonDecidedE = __main_start + 0x041B6848;
_ZTVN2nn4ui2d5GroupE = __main_start + 0x041B6888;
_ZTVN2nn4ui2d8AnimatorE = __main_start + 0x041B68B8;
_ZTVN2nn4ui2d13GroupAnimatorE = __main_start + 0x041B69E8;
_ZTVN2nn4ui2d18GroupArrayAnimatorE = __main_start + 0x041B6B18;
_ZTVN2nn4ui2d8DrawInfoE = __main_start + 0x041B6C48;
_ZTVN2nn4ui2d6detail8PaneBaseE = __main_start + 0x041B6C90;
_ZTVN2nn4ui2d4PaneE = __main_start + 0x041B6CB0;
_ZTVN2nn4ui2d6detail23DynamicRenderingTextureE = __main_start + 0x041B6E10;
_ZTVN2nn4ui2d7TextBoxE = __main_start + 0x041B6E80;
_ZTVN2nn4ui2d28DummyRenderTargetTextureInfoE = __main_start + 0x041B7038;
_ZTVN2nn4ui2d23RenderTargetTextureInfoE = __main_start + 0x041B7098;
_ZTVN2nn4ui2d14RoundRectShapeE = __main_start + 0x041B7150;
_ZTVN2nn4ui2d7PictureE = __main_start + 0x041B7190;
_ZTVN2nn4ui2d15Ui2dCircleShapeE = __main_start + 0x041B72E8;
_ZTVN2nn4ui2d8BoundingE = __main_start + 0x041B7328;
_ZTVN2nn4ui2d5PartsE = __main_start + 0x041B7478;
_ZTVN2nn4ui2d6WindowE = __main_start + 0x041B75C8;
_ZTVN2nn4ui2d9AlignmentE = __main_start + 0x041B7718;
_ZTVN2nn4ui2d24StateMachineEventHandlerE = __main_start + 0x041B7890;
_ZTVN2nn4ui2d10AnimatorExE = __main_start + 0x041B78D8;
_ZTVN2nn4ui2d6detail27VectorGraphicsShapePathDataE = __main_start + 0x041B7A20;
_ZTVN2nn4ui2d6detail30VectorGraphicsShapePathEllipseE = __main_start + 0x041B7AA8;
_ZTVN2nn4ui2d6detail27VectorGraphicsShapePathRectE = __main_start + 0x041B7B30;
_ZTVN2nn4ui2d6detail27VectorGraphicsShapePathStarE = __main_start + 0x041B7BB8;
_ZTVN2nn4ui2d6detail19VectorGraphicsLayerE = __main_start + 0x041B7C40;
_ZTVN2nn4ui2d6detail24VectorGraphicsShapeLayerE = __main_start + 0x041B7CB0;
_ZTVN2nn4ui2d6detail21VectorGraphicsTextureE = __main_start + 0x041B7D20;
_ZTVN2nn4ui2d8LayoutExE = __main_start + 0x041B7E48;
_ZTVN2nn4ui2d19ResourceTextureInfoE = __main_start + 0x041B7F58;
_ZTVN2nn4ui2d16ResourceAccessorE = __main_start + 0x041B7FD0;
_ZTVN2nn4ui2d7CaptureE = __main_start + 0x041B80A8;
_ZTVN2nn4ui2d14CaptureTextureE = __main_start + 0x041B81E0;
_ZTVN2nn4ui2d8MaterialE = __main_start + 0x041DD1D8;
_ZTVN2nn4ui2d17LayoutPaneFactoryE = __main_start + 0x041DD228;
_ZTVN2nn4ui2d7ScissorE = __main_start + 0x041DD278;
_ZTVN2nn3gfx4util14PrimitiveShapeE = __main_start + 0x041DD3C8;
_ZTVN2nn3gfx4util11CircleShapeE = __main_start + 0x041DD3F0;
