_ZN4sead11DrawContextD2Ev = __main_start + 0x0068DAE8;
_ZN4sead18GraphicsContextMRTC2Ev = __main_start + 0x0068EBF4;
_ZN4sead14MethodTreeNode4callEv = __main_start + 0x007503BC;
_ZN4sead22BufferedSafeStringBaseIcE6formatEPKcz = __main_start + 0x00753290;
_ZNK4sead18GraphicsContextMRT5applyEPNS_11DrawContextE = __main_start + 0x00756C1C;
_ZNK4sead7HeapMgr15findContainHeapEPKv = __main_start + 0x007612B0;
_ZN4sead4HeapD2Ev = __main_start + 0x0081F790;
_ZN4sead21FormatFixedSafeStringILi64EEC2EPKcz = __main_start + 0x00835914;
_ZN4sead15CriticalSectionC2Ev = __main_start + 0x0084A124;
_ZNK4sead8Viewport12applyScissorEPNS_11DrawContextERKNS_18LogicalFrameBufferE = __main_start + 0x00854428;
_ZN4sead22BufferedSafeStringBaseIcE16appendWithFormatEPKcz = __main_start + 0x00861C80;
_ZN4sead7ExpHeap9tryCreateEmRKNS_14SafeStringBaseIcEEPNS_4HeapEiNS5_13HeapDirectionEb = __main_start + 0x00879D50;
_ZN4sead4Path6getExtEPNS_22BufferedSafeStringBaseIcEERKNS_14SafeStringBaseIcEE = __main_start + 0x0089C2A8;
_ZN4sead15GameFrameworkNx8present_Ev = __main_start + 0x0089C4E4;
_ZN4sead11DrawContextC2Ev = __main_start + 0x008D9C94;
_ZN4sead11GraphicsNvn15getNewTextureIdEv = __main_start + 0x008E7734;
_ZN4sead7ExpHeap6createEmRKNS_14SafeStringBaseIcEEPNS_4HeapEiNS5_13HeapDirectionEb = __main_start + 0x008FF23C;
_ZN4sead15GameFrameworkNx10procFrame_Ev = __main_start + 0x0090E6F8;
_ZN4sead7TaskMgr9afterCalcEv = __main_start + 0x0090E80C;
_ZNK4sead12LookAtCamera14doUpdateMatrixEPNS_8Matrix34IfEE = __main_start + 0x00947728;
_ZN4sead16DirectProjection19setProjectionMatrixERKNS_8Matrix44IfEENS_8Graphics13DevicePostureE = __main_start + 0x0094BEE4;
_ZN4sead8ViewportC1ERKNS_18LogicalFrameBufferE = __main_start + 0x009B3984;
_ZN4sead21FormatFixedSafeStringILi256EEC2EPKcz = __main_start + 0x009C8040;
_ZN4sead15GameFrameworkNx9procCalc_Ev = __main_start + 0x00A39E68;
_ZN4sead7TaskMgr10beforeCalcEv = __main_start + 0x00A39F4C;
_ZN4sead8Graphics15lockDrawContextEv = __main_start + 0x00A3A0B8;
_ZN4sead21FormatFixedSafeStringILi32EEC2EPKcz = __main_start + 0x00A5CDE4;
_ZN4sead21FormatFixedSafeStringILi1024EEC2EPKcz = __main_start + 0x00A9CC98;
_ZN4sead4Path11getFileNameEPNS_22BufferedSafeStringBaseIcEERKNS_14SafeStringBaseIcEE = __main_start + 0x00ABA4A0;
_ZN4sead4HeapC2ERKNS_14SafeStringBaseIcEEPS0_PvmNS0_13HeapDirectionEb = __main_start + 0x00B0F2D0;
_ZN4sead15GameFrameworkNx15waitForGpuDone_Ev = __main_start + 0x00B39A00;
_ZN4sead15GameFrameworkNx9procDraw_Ev = __main_start + 0x00B710B8;
_ZN4sead19PrimitiveDrawMgrNvn22swapUniformBlockBufferEv = __main_start + 0x00B71418;
_ZN4sead15DebugFontMgrNvn22swapUniformBlockBufferEv = __main_start + 0x00B7144C;
_ZN4sead19DebugFontMgrJis1Nvn22swapUniformBlockBufferEv = __main_start + 0x00B71480;
_ZN4sead13FileDeviceMgr7tryLoadERNS_10FileDevice7LoadArgE = __main_start + 0x00D1E418;
_ZN4sead10FileDevice7tryLoadERNS0_7LoadArgE = __main_start + 0x00D1E4B4;
_ZN4sead12PtrArrayImpl11allocBufferEiPNS_4HeapEi = __main_start + 0x00D26F80;
_ZN4sead9IDisposerC2EPNS_4HeapENS0_14HeapNullOptionE = __main_start + 0x00D81E24;
_ZN4sead6Thread11setAffinityERKNS_10CoreIdMaskE = __main_start + 0x00DA076C;
_ZNK4sead10Projection19getProjectionMatrixEv = __main_start + 0x00DEF840;
_ZN4sead15GameFrameworkNxC2ERKNS0_9CreateArgE = __main_start + 0x00EBA214;
_ZN4sead13GameFrameworkC2Ev = __main_start + 0x00EBA348;
_ZN4sead9FrameworkC2Ev = __main_start + 0x00EBA394;
_ZN4sead13GameFramework10initializeERKNS_9Framework13InitializeArgE = __main_start + 0x00EBA7EC;
_ZN4sead7HeapMgr15setCurrentHeap_EPNS_4HeapE = __main_start + 0x00EBA98C;
_ZN4sead13FileDeviceMgr14createInstanceEPNS_4HeapE = __main_start + 0x00EBA9CC;
_ZN4sead11ResourceMgr14createInstanceEPNS_4HeapE = __main_start + 0x00EBAA48;
_ZN4sead13FileDeviceMgr5mountEPNS_10FileDeviceERKNS_14SafeStringBaseIcEE = __main_start + 0x00EBABC0;
_ZN4sead9Framework10initializeERKNS0_13InitializeArgE = __main_start + 0x00EBAF60;
_ZN4sead9ThreadMgr10initializeEPNS_4HeapE = __main_start + 0x00EBB018;
_ZN4sead7HeapMgr10initializeEPNS_5ArenaE = __main_start + 0x00EBB01C;
_ZN4sead9ThreadMgr14createInstanceEPNS_4HeapE = __main_start + 0x00EBB0F0;
_ZN4sead12GlobalRandom14createInstanceEPNS_4HeapE = __main_start + 0x00EBB1B4;
_ZN4sead9ThreadMgr15initMainThread_EPNS_4HeapE = __main_start + 0x00EBB36C;
_ZN4sead6ThreadC2EPNS_4HeapEPN2nn2os10ThreadTypeEj = __main_start + 0x00EBB418;
_ZN4sead15GameFrameworkNx24initializeGraphicsSystemEPNS_4HeapERKNS_7Vector2IfEE = __main_start + 0x00EBCCBC;
_ZNK4sead7HeapMgr14getCurrentHeapEv = __main_start + 0x00ECA2FC;
_ZN4sead14DelegateThreadC1ERKNS_14SafeStringBaseIcEEPNS_10IDelegate2IPNS_6ThreadElEEPNS_4HeapEiNS_12MessageQueue9BlockTypeElii = __main_start + 0x00EE6F74;
_ZN4sead6ThreadC2ERKNS_14SafeStringBaseIcEEPNS_4HeapEiNS_12MessageQueue9BlockTypeElii = __main_start + 0x00EE6FC4;
_ZN4sead11GraphicsNvn25initializeDrawLockContextEPNS_4HeapE = __main_start + 0x00F14F80;
_ZN4sead15GameFrameworkNx8initRun_EPNS_4HeapE = __main_start + 0x00F46BB0;
_ZN4sead15GameFrameworkNx20createMethodTreeMgr_EPNS_4HeapE = __main_start + 0x00FD0820;
_ZN4sead25SingleScreenMethodTreeMgrC2Ev = __main_start + 0x00FD0850;
_ZN4sead13MethodTreeMgrC2Ev = __main_start + 0x00FD0A54;
_ZN4sead8Graphics10initializeEPNS_4HeapE = __main_start + 0x01040988;
_ZN4sead15DrawLockContext6unlockEv = __main_start + 0x01040A00;
_ZN4sead15DrawLockContextC2Ev = __main_start + 0x01040A08;
_ZN4sead14MethodTreeNode9detachAllEv = __main_start + 0x01052E0C;
_ZN4sead9IDisposerC2Ev = __main_start + 0x010657F0;
_ZN4sead8TaskBaseC2ERKNS_16TaskConstructArgEPKc = __main_start + 0x010659E4;
_ZN4sead6Random4initEv = __main_start + 0x01082FA0;
_ZN4sead13GameFramework17createSystemTasksEPNS_8TaskBaseERKNS_9Framework19CreateSystemTaskArgE = __main_start + 0x01095078;
_ZN4sead9Framework17createSystemTasksEPNS_8TaskBaseERKNS0_19CreateSystemTaskArgE = __main_start + 0x0109514C;
_ZN4sead9IDisposerD2Ev = __main_start + 0x010A74FC;
_ZN4sead9SafeArrayIN4gsys16ModelSceneConfigELi32EEC2Ev = __main_start + 0x010C6FE4;
_ZN4sead15GameFrameworkNx11swapBuffer_Ev = __main_start + 0x010DB1FC;
_ZN4sead9Framework3runEPNS_4HeapERKNS_8TaskBase9CreateArgERKNS0_6RunArgE = __main_start + 0x010FC4E0;
_ZN4sead7TaskMgr13InitializeArgC1ERKNS_8TaskBase9CreateArgE = __main_start + 0x010FC5E0;
_ZN4sead7TaskMgr10initializeERKNS0_13InitializeArgE = __main_start + 0x010FC600;
_ZN4sead7TaskMgrC2ERKNS0_13InitializeArgE = __main_start + 0x010FC63C;
_ZN4sead13NullFaderTaskC2ERKNS_16TaskConstructArgE = __main_start + 0x010FCA34;
_ZN4sead13GameFramework18createProcessMeterEPNS_8TaskBaseE = __main_start + 0x0111FF74;
_ZNK4sead11FrameBuffer4bindEPNS_11DrawContextE = __main_start + 0x01128B04;
_ZN4sead9SafeArrayINS_14MethodTreeNodeELi6EEC2Ev = __main_start + 0x0112CC38;
_ZN4sead16NinJoyNpadDevice15VibrationThreadC2EPNS_4HeapE = __main_start + 0x0114212C;
_ZN4sead12LookAtCameraD2Ev = __main_start + 0x0114D7B8;
_ZN4sead9SafeArrayIN3agl3utl9ParameterINS_15FixedSafeStringILi32EEEEELi8EEC2Ev = __main_start + 0x0115A6D8;
_ZNK4sead25SingleScreenMethodTreeMgr27checkDerivedRuntimeTypeInfoEPKNS_15RuntimeTypeInfo9InterfaceE = __main_start + 0x011C6AA0;
_ZN4sead11GraphicsNvnC2ERKNS0_9CreateArgE = __main_start + 0x011CF310;
_ZN4sead8GraphicsC2Ev = __main_start + 0x011CF3D8;
_ZN4sead9Framework10procReset_Ev = __main_start + 0x012231B4;
_ZN4sead25SingleScreenMethodTreeMgr12attachMethodEiPNS_14MethodTreeNodeE = __main_start + 0x01273FB4;
_ZN4sead11GraphicsNvn14initializeImplEPNS_4HeapE = __main_start + 0x012B0F38;
_ZNK4sead6Camera19getWorldPosByMatrixEPNS_7Vector3IfEE = __main_start + 0x01633478;
_ZNK4sead6Camera21getLookVectorByMatrixEPNS_7Vector3IfEE = __main_start + 0x016334E4;
_ZNK4sead6Camera19getUpVectorByMatrixEPNS_7Vector3IfEE = __main_start + 0x0163350C;
_ZN4sead17NinFileDeviceBaseC1ERKNS_14SafeStringBaseIcEES4_ = __main_start + 0x0193B258;
_ZN4sead19NinHostIOFileDeviceC2Ev = __main_start + 0x021C4830;
_ZN4sead15GameFrameworkNxD2Ev = __main_start + 0x021C5274;
_ZN4sead13GameFrameworkD0Ev = __main_start + 0x021C5278;
_ZN4sead11GraphicsNvn20convertNvnDebugLevelEj = __main_start + 0x021C8D54;
_ZN4sead11GraphicsNvn13registerQueueEP8NVNqueue = __main_start + 0x021C8D78;
_ZN4sead16DisplayBufferNvnC2Ev = __main_start + 0x021C8D80;
_ZN4sead16DisplayBufferNvn15setTripleBufferEb = __main_start + 0x021C8DC0;
_ZN4sead11GraphicsNvn24registerDisplayBufferNvnEPNS_16DisplayBufferNvnE = __main_start + 0x021C8DD4;
_ZN4sead11GraphicsNvn28registerDefaultCommandBufferEP16NVNcommandBuffer = __main_start + 0x021C8DDC;
_ZN4sead14FrameBufferNvn6createEPNS_4HeapERKNS_7Vector2IfEEjj = __main_start + 0x021C8DE4;
_ZN4sead15GameFrameworkNx18clearFrameBuffers_Ei = __main_start + 0x021C9198;
_ZNK4sead15GameFrameworkNx27checkDerivedRuntimeTypeInfoEPKNS_15RuntimeTypeInfo9InterfaceE = __main_start + 0x021C92A8;
_ZNK4sead15GameFrameworkNx18getRuntimeTypeInfoEv = __main_start + 0x021C92AC;
_ZN4sead9FrameworkD2Ev = __main_start + 0x021C940C;
_ZN4sead7HeapMgr10initializeEm = __main_start + 0x021C957C;
_ZNK4sead9Framework27checkDerivedRuntimeTypeInfoEPKNS_15RuntimeTypeInfo9InterfaceE = __main_start + 0x021C960C;
_ZNK4sead9Framework18getRuntimeTypeInfoEv = __main_start + 0x021C9638;
_ZN4sead13GameFramework19createControllerMgrEPNS_8TaskBaseE = __main_start + 0x021C9680;
_ZN4sead13GameFramework21waitStartDisplayLoop_Ev = __main_start + 0x021C96D8;
_ZNK4sead13GameFramework18getRuntimeTypeInfoEv = __main_start + 0x021C97F0;
_ZN4sead13GameFrameworkD2Ev = __main_start + 0x021C982C;
_ZN4sead12ProcessMeter18SingletonDisposer_D2Ev = __main_start + 0x021C9964;
_ZN4sead25SingleScreenMethodTreeMgrD2Ev = __main_start + 0x021C9994;
_ZN4sead13MethodTreeMgrD2Ev = __main_start + 0x021C9A7C;
_ZN4sead25SingleScreenMethodTreeMgr8pauseAllEb = __main_start + 0x021C9A8C;
_ZN4sead25SingleScreenMethodTreeMgr12pauseAppCalcEb = __main_start + 0x021C9AC8;
_ZNK4sead25SingleScreenMethodTreeMgr18getRuntimeTypeInfoEv = __main_start + 0x021C9ADC;
_ZNK4sead13MethodTreeMgr27checkDerivedRuntimeTypeInfoEPKNS_15RuntimeTypeInfo9InterfaceE = __main_start + 0x021C9B50;
_ZNK4sead13MethodTreeMgr18getRuntimeTypeInfoEv = __main_start + 0x021C9B7C;
_ZN4sead8TaskBaseD2Ev = __main_start + 0x021C9BF0;
_ZN4sead8TaskBase9onDestroyEv = __main_start + 0x021C9E20;
_ZNK4sead8TaskBase27checkDerivedRuntimeTypeInfoEPKNS_15RuntimeTypeInfo9InterfaceE = __main_start + 0x021C9ED8;
_ZNK4sead8TaskBase18getRuntimeTypeInfoEv = __main_start + 0x021C9F04;
_ZN4sead13FaderTaskBase14attachCalcImplEv = __main_start + 0x021CA56C;
_ZN4sead13FaderTaskBase9pauseCalcEb = __main_start + 0x021CA5B4;
_ZN4sead13FaderTaskBase12pauseCalcRecEb = __main_start + 0x021CA5C0;
_ZN4sead13FaderTaskBase14pauseCalcChildEb = __main_start + 0x021CA5D4;
_ZN4sead13FaderTaskBase14detachCalcImplEv = __main_start + 0x021CA5E8;
_ZNK4sead13NullFaderTask37getCorrespondingMethodTreeMgrTypeInfoEv = __main_start + 0x021CA5F0;
_ZN4sead19DebugFontMgrJis1Nvn14deleteInstanceEv = __main_start + 0x021CA6AC;
_ZN4sead19DebugFontMgrJis1Nvn14createInstanceEPNS_4HeapE = __main_start + 0x021CA704;
_ZN4sead19DebugFontMgrJis1Nvn10initializeEPNS_4HeapEPKcS4_S4_j = __main_start + 0x021CA7A4;
_ZN4sead19DebugFontMgrJis1Nvn20initializeFromBinaryEPNS_4HeapEPvmS3_mPKvj = __main_start + 0x021CA87C;
_ZNK4sead19DebugFontMgrJis1Nvn5printEPNS_11DrawContextERKNS_10ProjectionERKNS_6CameraERKNS_8Matrix34IfEERKNS_7Color4fEPKvi = __main_start + 0x021CAD6C;
_ZN4sead15DebugFontMgrNvn14deleteInstanceEv = __main_start + 0x021CB038;
_ZN4sead15DebugFontMgrNvn14createInstanceEPNS_4HeapE = __main_start + 0x021CB090;
_ZN4sead15DebugFontMgrNvn10initializeEPNS_4HeapEPKcS4_j = __main_start + 0x021CB128;
_ZN4sead15DebugFontMgrNvn20initializeFromBinaryEPNS_4HeapEPvmS3_mj = __main_start + 0x021CB1E0;
_ZNK4sead15DebugFontMgrNvn5printEPNS_11DrawContextERKNS_10ProjectionERKNS_6CameraERKNS_8Matrix34IfEERKNS_7Color4fEPKvi = __main_start + 0x021CB688;
_ZN4sead16DisplayBufferNvn15initializeImpl_EPNS_4HeapE = __main_start + 0x021CB854;
_ZN4sead19PrimitiveDrawMgrNvn18SingletonDisposer_D2Ev = __main_start + 0x021CC010;
_ZN4sead19PrimitiveDrawMgrNvn18SingletonDisposer_D0Ev = __main_start + 0x021CC05C;
_ZN4sead19PrimitiveDrawMgrNvn14createInstanceEPNS_4HeapE = __main_start + 0x021CC0B4;
_ZN4sead19PrimitiveDrawMgrNvn21prepareFromBinaryImplEPNS_4HeapEPKvj = __main_start + 0x021CC158;
_ZN4sead19PrimitiveDrawMgrNvn15setupNVNBuffer_EP9NVNbufferP13NVNmemoryPoolPmm = __main_start + 0x021CC9B0;
_ZN4sead17PrimitiveDrawUtil13setQuadVertexEPNS0_6VertexEPt = __main_start + 0x021CCA70;
_ZN4sead17PrimitiveDrawUtil13setLineVertexEPNS0_6VertexEPt = __main_start + 0x021CCAC0;
_ZN4sead17PrimitiveDrawUtil13setCubeVertexEPNS0_6VertexEPt = __main_start + 0x021CCB00;
_ZN4sead17PrimitiveDrawUtil17setWireCubeVertexEPNS0_6VertexEPt = __main_start + 0x021CCB50;
_ZN4sead17PrimitiveDrawUtil15setSphereVertexEPNS0_6VertexEPtii = __main_start + 0x021CCBA0;
_ZN4sead17PrimitiveDrawUtil13setDiskVertexEPNS0_6VertexEPti = __main_start + 0x021CCF90;
_ZN4sead17PrimitiveDrawUtil17setCylinderVertexEPNS0_6VertexEPti = __main_start + 0x021CD0C0;
_ZN4sead19PrimitiveDrawMgrNvn11prepareImplEPNS_4HeapERKNS_14SafeStringBaseIcEE = __main_start + 0x021CD300;
_ZN4sead19PrimitiveDrawMgrNvn9beginImplEPNS_11DrawContextERKNS_8Matrix34IfEERKNS_8Matrix44IfEE = __main_start + 0x021CD380;
_ZN4sead19PrimitiveDrawMgrNvn12drawQuadImplEPNS_11DrawContextERKNS_8Matrix34IfEERKNS_7Color4fES9_ = __main_start + 0x021CD490;
_ZN4sead19PrimitiveDrawMgrNvn12drawQuadImplEPNS_11DrawContextERKNS_8Matrix34IfEERKNS_7TextureERKNS_7Color4fESC_RKNS_7Vector2IfEESG_ = __main_start + 0x021CD7F4;
_ZN4sead19PrimitiveDrawMgrNvn11drawBoxImplEPNS_11DrawContextERKNS_8Matrix34IfEERKNS_7Color4fES9_ = __main_start + 0x021CD844;
_ZN4sead19PrimitiveDrawMgrNvn12drawCubeImplEPNS_11DrawContextERKNS_8Matrix34IfEERKNS_7Color4fES9_ = __main_start + 0x021CD894;
_ZN4sead19PrimitiveDrawMgrNvn16drawWireCubeImplEPNS_11DrawContextERKNS_8Matrix34IfEERKNS_7Color4fES9_ = __main_start + 0x021CD8E4;
_ZN4sead19PrimitiveDrawMgrNvn12drawLineImplEPNS_11DrawContextERKNS_8Matrix34IfEERKNS_7Color4fES9_ = __main_start + 0x021CD934;
_ZN4sead19PrimitiveDrawMgrNvn17drawSphere4x8ImplEPNS_11DrawContextERKNS_8Matrix34IfEERKNS_7Color4fES9_ = __main_start + 0x021CD984;
_ZN4sead19PrimitiveDrawMgrNvn18drawSphere8x16ImplEPNS_11DrawContextERKNS_8Matrix34IfEERKNS_7Color4fES9_ = __main_start + 0x021CD9D4;
_ZN4sead19PrimitiveDrawMgrNvn14drawDisk16ImplEPNS_11DrawContextERKNS_8Matrix34IfEERKNS_7Color4fES9_ = __main_start + 0x021CDA24;
_ZN4sead19PrimitiveDrawMgrNvn14drawDisk32ImplEPNS_11DrawContextERKNS_8Matrix34IfEERKNS_7Color4fES9_ = __main_start + 0x021CDA74;
_ZN4sead19PrimitiveDrawMgrNvn16drawCircle16ImplEPNS_11DrawContextERKNS_8Matrix34IfEERKNS_7Color4fE = __main_start + 0x021CDAC4;
_ZN4sead19PrimitiveDrawMgrNvn16drawCircle32ImplEPNS_11DrawContextERKNS_8Matrix34IfEERKNS_7Color4fE = __main_start + 0x021CDB14;
_ZN4sead19PrimitiveDrawMgrNvn18drawCylinder16ImplEPNS_11DrawContextERKNS_8Matrix34IfEERKNS_7Color4fES9_ = __main_start + 0x021CDB64;
_ZN4sead19PrimitiveDrawMgrNvn18drawCylinder32ImplEPNS_11DrawContextERKNS_8Matrix34IfEERKNS_7Color4fES9_ = __main_start + 0x021CDBB4;
_ZNK4sead4Heap8dumpYAMLERNS_11WriteStreamEi = __main_start + 0x021CEE70;
_ZN4sead11WriteStream19writeDecorationTextERKNS_14SafeStringBaseIcEE = __main_start + 0x021CF30C;
_ZN4sead4Heap15genInformation_EPNS_6hostio7ContextE = __main_start + 0x021CF384;
_ZN4sead4Heap15makeMetaString_EPNS_22BufferedSafeStringBaseIcEE = __main_start + 0x021CF8F4;
_ZNK4sead4Heap27checkDerivedRuntimeTypeInfoEPKNS_15RuntimeTypeInfo9InterfaceE = __main_start + 0x021CF96C;
_ZNK4sead4Heap18getRuntimeTypeInfoEv = __main_start + 0x021CF970;
_ZNK4sead12LookAtCamera18getRuntimeTypeInfoEv = __main_start + 0x021DAC28;
_ZNK4sead21PerspectiveProjection7getNearEv = __main_start + 0x022080E4;
_ZNK4sead21PerspectiveProjection6getFarEv = __main_start + 0x022080EC;
_ZN4sead15GameFrameworkNxD0Ev = __main_start + 0x02A2DB1C;
_ZN4sead15GameFrameworkNx20outOfMemoryCallback_EP16NVNcommandBuffer27NVNcommandBufferMemoryEventmPv = __main_start + 0x02A2DBC4;
_ZN4sead15GameFrameworkNx13presentAsync_EPNS_6ThreadEl = __main_start + 0x02A2DBC8;
_ZN4sead15GameFrameworkNx8runImpl_Ev = __main_start + 0x02A2DBD4;
_ZN4sead15GameFrameworkNx9mainLoop_Ev = __main_start + 0x02A2DC10;
_ZN4sead15GameFrameworkNx16setGpuTimeStamp_Ev = __main_start + 0x02A2DC34;
_ZNK4sead15GameFrameworkNx20getMethodFrameBufferEi = __main_start + 0x02A2DCC4;
_ZNK4sead15GameFrameworkNx27getMethodLogicalFrameBufferEi = __main_start + 0x02A2DCD8;
_ZN4sead9Framework18setProcessPriorityENS0_15ProcessPriorityE = __main_start + 0x02A2DCEC;
_ZN4sead9Framework12reserveResetEPv = __main_start + 0x02A2DCF4;
_ZN4sead15GameFrameworkNx7calcFpsEv = __main_start + 0x02A2DD04;
_ZN4sead13GameFramework14saveScreenShotERKNS_14SafeStringBaseIcEE = __main_start + 0x02A2DD24;
_ZNK4sead13GameFramework16isScreenShotBusyEv = __main_start + 0x02A2DD28;
_ZN4sead15GameFrameworkNx10setCaptionERKNS_14SafeStringBaseIcEE = __main_start + 0x02A2DD30;
_ZN4sead9FrameworkD0Ev = __main_start + 0x02A2DD78;
_ZN4sead9Framework8initRun_EPNS_4HeapE = __main_start + 0x02A2DD7C;
_ZN4sead9Framework8quitRun_EPNS_4HeapE = __main_start + 0x02A2DD80;
_ZN4sead9Framework8runImpl_Ev = __main_start + 0x02A2DD84;
_ZNK4sead9Framework27getMethodLogicalFrameBufferEi = __main_start + 0x02A2DD88;
_ZN4sead13GameFramework15createHostIOMgrEPNS_8TaskBaseEPNS_9HostIOMgr9ParameterEPNS_4HeapE = __main_start + 0x02A2DD98;
_ZN4sead13GameFramework17createSeadMenuMgrEPNS_8TaskBaseE = __main_start + 0x02A2DD9C;
_ZN4sead13GameFramework20createInfLoopCheckerEPNS_8TaskBaseERKNS_8TickSpanEi = __main_start + 0x02A2DDA0;
_ZN4sead13GameFramework17createCuckooClockEPNS_8TaskBaseE = __main_start + 0x02A2DDA4;
_ZN4sead13GameFramework8quitRun_EPNS_4HeapE = __main_start + 0x02A2DDA8;
_ZN4sead13GameFramework11initHostIO_Ev = __main_start + 0x02A2DDAC;
_ZN4sead12ProcessMeter18SingletonDisposer_D0Ev = __main_start + 0x02A2DDB0;
_ZN4sead25SingleScreenMethodTreeMgrD0Ev = __main_start + 0x02A2DEC8;
_ZN4sead25SingleScreenMethodTreeMgr21getRootMethodTreeNodeEi = __main_start + 0x02A2DF2C;
_ZN4sead13MethodTreeMgrD0Ev = __main_start + 0x02A2DF80;
_ZN4sead8TaskBaseD0Ev = __main_start + 0x02A2E040;
_ZN4sead8TaskBase7prepareEv = __main_start + 0x02A2E044;
_ZN4sead8TaskBase11enterCommonEv = __main_start + 0x02A2E048;
_ZN4sead8TaskBase5enterEv = __main_start + 0x02A2E0B4;
_ZN4sead8TaskBase4exitEv = __main_start + 0x02A2E0B8;
_ZN4sead8TaskBase7onEventERKNS_9TaskEventE = __main_start + 0x02A2E0BC;
_ZN4sead8TaskBase14pauseCalcChildEb = __main_start + 0x02A2E0C0;
_ZN4sead8TaskBase14pauseDrawChildEb = __main_start + 0x02A2E0C4;
_ZN4sead13FaderTaskBase5enterEv = __main_start + 0x02A2E18C;
_ZN4sead13FaderTaskBase4calcEv = __main_start + 0x02A2E1C4;
_ZN4sead13FaderTaskBase17getMethodTreeNodeEi = __main_start + 0x02A2E2D8;
_ZN4sead13FaderTaskBaseD2Ev = __main_start + 0x02A2E2E8;
_ZN4sead13FaderTaskBaseD0Ev = __main_start + 0x02A2E488;
_ZN4sead13FaderTaskBase7doCalc_Ev = __main_start + 0x02A2E48C;
_ZN4sead13FaderTaskBase12onFadeEvent_ERKNS0_9FadeEventE = __main_start + 0x02A2E490;
_ZN4sead13NullFaderTaskD0Ev = __main_start + 0x02A2E494;
_ZN4sead13NullFaderTask9pauseDrawEb = __main_start + 0x02A2E68C;
_ZN4sead13NullFaderTask12pauseDrawRecEb = __main_start + 0x02A2E690;
_ZN4sead13NullFaderTask14pauseDrawChildEb = __main_start + 0x02A2E694;
_ZN4sead13NullFaderTask14attachDrawImplEv = __main_start + 0x02A2E698;
_ZN4sead13NullFaderTask14detachDrawImplEv = __main_start + 0x02A2E69C;
_ZN4sead13NullFaderTask17getMethodTreeNodeEi = __main_start + 0x02A2E6A0;
_ZN4sead13NullFaderTask4drawEv = __main_start + 0x02A2E6A8;
_ZN4sead11GraphicsNvn16nvnDebugCallbackE22NVNdebugCallbackSource20NVNdebugCallbackTypei24NVNdebugCallbackSeverityPKcPv = __main_start + 0x02A2EC28;
_ZN4sead11GraphicsNvn15setViewportImplEffff = __main_start + 0x02A2EC74;
_ZN4sead11GraphicsNvn14setScissorImplEffff = __main_start + 0x02A2EC78;
_ZN4sead11GraphicsNvn22setDepthTestEnableImplEb = __main_start + 0x02A2EC7C;
_ZN4sead11GraphicsNvn23setDepthWriteEnableImplEb = __main_start + 0x02A2EC80;
_ZN4sead11GraphicsNvn16setDepthFuncImplENS_8Graphics9DepthFuncE = __main_start + 0x02A2EC84;
_ZN4sead11GraphicsNvn25setVBlankWaitIntervalImplEj = __main_start + 0x02A2EC88;
_ZN4sead11GraphicsNvn18setCullingModeImplENS_8Graphics11CullingModeE = __main_start + 0x02A2EC94;
_ZN4sead11GraphicsNvn18setBlendEnableImplEb = __main_start + 0x02A2EC98;
_ZN4sead11GraphicsNvn21setBlendEnableMRTImplEjb = __main_start + 0x02A2EC9C;
_ZN4sead11GraphicsNvn18setBlendFactorImplENS_8Graphics11BlendFactorES2_S2_S2_ = __main_start + 0x02A2ECA0;
_ZN4sead11GraphicsNvn21setBlendFactorMRTImplEjNS_8Graphics11BlendFactorES2_S2_S2_ = __main_start + 0x02A2ECA4;
_ZN4sead11GraphicsNvn20setBlendEquationImplENS_8Graphics13BlendEquationES2_ = __main_start + 0x02A2ECA8;
_ZN4sead11GraphicsNvn23setBlendEquationMRTImplEjNS_8Graphics13BlendEquationES2_ = __main_start + 0x02A2ECAC;
_ZN4sead11GraphicsNvn25setBlendConstantColorImplERKNS_7Color4fE = __main_start + 0x02A2ECB0;
_ZN4sead11GraphicsNvn17waitForVBlankImplEv = __main_start + 0x02A2ECB4;
_ZN4sead11GraphicsNvn16setColorMaskImplEbbbb = __main_start + 0x02A2ECB8;
_ZN4sead11GraphicsNvn19setColorMaskMRTImplEjbbbb = __main_start + 0x02A2ECBC;
_ZN4sead11GraphicsNvn22setAlphaTestEnableImplEb = __main_start + 0x02A2ECC0;
_ZN4sead11GraphicsNvn20setAlphaTestFuncImplENS_8Graphics9AlphaFuncEf = __main_start + 0x02A2ECC4;
_ZN4sead11GraphicsNvn24setStencilTestEnableImplEb = __main_start + 0x02A2ECC8;
_ZN4sead11GraphicsNvn22setStencilTestFuncImplENS_8Graphics11StencilFuncEij = __main_start + 0x02A2ECCC;
_ZN4sead11GraphicsNvn20setStencilTestOpImplENS_8Graphics9StencilOpES2_S2_ = __main_start + 0x02A2ECD0;
_ZN4sead11GraphicsNvn18setPolygonModeImplENS_8Graphics11PolygonModeES2_ = __main_start + 0x02A2ECD4;
_ZN4sead11GraphicsNvn26setPolygonOffsetEnableImplEbbb = __main_start + 0x02A2ECD8;
_ZN4sead11GraphicsNvnD2Ev = __main_start + 0x02A2ECDC;
_ZN4sead11GraphicsNvnD0Ev = __main_start + 0x02A2ED24;
_ZN4sead19PrimitiveDrawMgrNvnD2Ev = __main_start + 0x02A2EE38;
_ZN4sead19PrimitiveDrawMgrNvnD0Ev = __main_start + 0x02A2EE3C;
_ZN4sead19PrimitiveDrawMgrNvn7endImplEPNS_11DrawContextE = __main_start + 0x02A2EE9C;
_ZN4sead4Heap10tryReallocEPvmi = __main_start + 0x02A2FA0C;
_ZN4sead4HeapD0Ev = __main_start + 0x02A2FA14;
_ZN4sead4Heap14pushBackChild_EPS0_ = __main_start + 0x02A2FA38;
_ZNK4sead4Heap4dumpEv = __main_start + 0x02A2FACC;
_ZN4sead12LookAtCameraD0Ev = __main_start + 0x02A33F04;
_ZNK4sead12LookAtCamera27checkDerivedRuntimeTypeInfoEPKNS_15RuntimeTypeInfo9InterfaceE = __main_start + 0x02A33F64;
_ZTVN4sead17NinFileDeviceBaseE = __main_start + 0x045B88A8;
_ZTVN4sead15GameFrameworkNxE = __main_start + 0x045B8FA8;
_ZTVN4sead9FrameworkE = __main_start + 0x045B91C8;
_ZTVN4sead13GameFrameworkE = __main_start + 0x045B9250;
_ZTVN4sead12ProcessMeter18SingletonDisposer_E = __main_start + 0x045B9360;
_ZTVN4sead25SingleScreenMethodTreeMgrE = __main_start + 0x045B9380;
_ZTVN4sead13MethodTreeMgrE = __main_start + 0x045B93D0;
_ZTVN4sead8TaskBaseE = __main_start + 0x045B9540;
_ZTVN4sead13NullFaderTaskE = __main_start + 0x045B9640;
_ZTVN4sead13FaderTaskBaseE = __main_start + 0x045B9720;
_ZTVN4sead11GraphicsNvnE = __main_start + 0x045B9A80;
_ZTVN4sead19PrimitiveDrawMgrNvnE = __main_start + 0x045B9BE0;
_ZTVN4sead4HeapE = __main_start + 0x045B9F50;
_ZTVN4sead12LookAtCameraE = __main_start + 0x045BB2A0;
_ZN4sead13FileDeviceMgr9sInstanceE = __main_start + 0x04719128;
_ZN4sead19DebugFontMgrJis1Nvn18SingletonDisposer_15sStaticDisposerE = __main_start + 0x04719210;
_ZN4sead19DebugFontMgrJis1Nvn9sInstanceE = __main_start + 0x04719218;
_ZN4sead15DebugFontMgrNvn18SingletonDisposer_15sStaticDisposerE = __main_start + 0x04719230;
_ZN4sead15DebugFontMgrNvn9sInstanceE = __main_start + 0x04719238;
_ZN4sead19PrimitiveDrawMgrNvn18SingletonDisposer_15sStaticDisposerE = __main_start + 0x04719290;
_ZN4sead19PrimitiveDrawMgrNvn9sInstanceE = __main_start + 0x04719298;
_ZN4sead7HeapMgr10sRootHeapsE = __main_start + 0x04719328;
_ZN4sead7HeapMgr12sInstancePtrE = __main_start + 0x047193C0;
_ZN4sead9ThreadMgr9sInstanceE = __main_start + 0x04719520;
_ZN4sead8Graphics9sInstanceE = __main_start + 0x04719568;
_ZN4sead12GlobalRandom18SingletonDisposer_15sStaticDisposerE = __main_start + 0x04719620;
_ZN4sead12GlobalRandom9sInstanceE = __main_start + 0x04719628;
_ZN4sead8TickSpan10cFrequencyE = __main_start + 0x04719638;
_ZN4sead8CoreInfo18sCoreNumberTlsSlotE = __main_start + 0x04719650;
